target datalayout = "e-m:e-p270:32:32-p271:32:32-p272:64:64-i64:64-i128:128-f80:128-n8:16:32:64-S128"
target triple = "x86_64-pc-linux-gnu"

%"struct.cv::iPow_SIMD" = type { i8 }

; Function Attrs: inlinehint mustprogress nounwind uwtable
define linkonce_odr noundef nonnull align 4 dereferenceable(4) ptr @_ZSt3minIjERKT_S2_S2_(ptr noundef nonnull align 4 dereferenceable(4) %0, ptr noundef nonnull align 4 dereferenceable(4) %1) #7 comdat {
  %3 = alloca ptr, align 8
  %4 = alloca ptr, align 8
  %5 = alloca ptr, align 8
  store ptr %0, ptr %4, align 8, !tbaa !67
  store ptr %1, ptr %5, align 8, !tbaa !67
  %6 = load ptr, ptr %5, align 8, !tbaa !67
  %7 = load i32, ptr %6, align 4, !tbaa !8
  %8 = load ptr, ptr %4, align 8, !tbaa !67
  %9 = load i32, ptr %8, align 4, !tbaa !8
  %10 = icmp ult i32 %7, %9
  br i1 %10, label %11, label %13

11:                                               ; preds = %2
  %12 = load ptr, ptr %5, align 8, !tbaa !67
  store ptr %12, ptr %3, align 8
  br label %15

13:                                               ; preds = %2
  %14 = load ptr, ptr %4, align 8, !tbaa !67
  store ptr %14, ptr %3, align 8
  br label %15

15:                                               ; preds = %13, %11
  %16 = load ptr, ptr %3, align 8
  ret ptr %16
}

; Function Attrs: inlinehint mustprogress uwtable
define internal noundef zeroext i8 @_ZN2cvL13saturate_castIhEET_j(i32 noundef %0) #10 {
  %2 = alloca i32, align 4
  %3 = alloca i32, align 4
  store i32 %0, ptr %2, align 4, !tbaa !8
  call void @llvm.lifetime.start.p0(i64 4, ptr %3) #3
  store i32 255, ptr %3, align 4, !tbaa !8
  %4 = call noundef nonnull align 4 dereferenceable(4) ptr @_ZSt3minIjERKT_S2_S2_(ptr noundef nonnull align 4 dereferenceable(4) %2, ptr noundef nonnull align 4 dereferenceable(4) %3)
  %5 = load i32, ptr %4, align 4, !tbaa !8
  %6 = trunc i32 %5 to i8
  call void @llvm.lifetime.end.p0(i64 4, ptr %3) #3
  ret i8 %6
}

; Function Attrs: mustprogress nounwind uwtable
define linkonce_odr hidden noundef i32 @_ZN2cv9iPow_SIMDIhjEclEPKhPhii(ptr noundef nonnull align 1 dereferenceable(1) %0, ptr noundef %1, ptr noundef %2, i32 noundef %3, i32 noundef %4) #9 comdat align 2 {
  %6 = alloca ptr, align 8
  %7 = alloca ptr, align 8
  %8 = alloca ptr, align 8
  %9 = alloca i32, align 4
  %10 = alloca i32, align 4
  store ptr %0, ptr %6, align 8, !tbaa !181
  store ptr %1, ptr %7, align 8, !tbaa !39
  store ptr %2, ptr %8, align 8, !tbaa !39
  store i32 %3, ptr %9, align 4, !tbaa !8
  store i32 %4, ptr %10, align 4, !tbaa !8
  ret i32 0
}

; Function Attrs: inlinehint mustprogress nounwind uwtable
define linkonce_odr hidden noundef i32 @_ZN2cv6cv_absEh(i8 noundef zeroext %0) #7 comdat {
  %2 = alloca i8, align 1
  store i8 %0, ptr %2, align 1, !tbaa !7
  %3 = load i8, ptr %2, align 1, !tbaa !7
  %4 = zext i8 %3 to i32
  ret i32 %4
}

; Function Attrs: mustprogress nounwind uwtable
define linkonce_odr hidden noundef zeroext i8 @_ZNSt14numeric_limitsIhE3maxEv() #9 comdat align 2 {
  ret i8 -1
}

; Function Attrs: inlinehint mustprogress nounwind uwtable
define internal noundef zeroext i8 @_ZN2cvL13saturate_castIhEET_i(i32 noundef %0) #7 {
  %2 = alloca i32, align 4
  store i32 %0, ptr %2, align 4, !tbaa !8
  %3 = load i32, ptr %2, align 4, !tbaa !8
  %4 = icmp ule i32 %3, 255
  br i1 %4, label %5, label %7

5:                                                ; preds = %1
  %6 = load i32, ptr %2, align 4, !tbaa !8
  br label %11

7:                                                ; preds = %1
  %8 = load i32, ptr %2, align 4, !tbaa !8
  %9 = icmp sgt i32 %8, 0
  %10 = select i1 %9, i32 255, i32 0
  br label %11

11:                                               ; preds = %7, %5
  %12 = phi i32 [ %6, %5 ], [ %10, %7 ]
  %13 = trunc i32 %12 to i8
  ret i8 %13
}

; Function Attrs: mustprogress uwtable
define internal void @_ZN2cvL6iPow_iIhjEEvPKT_PS1_ii(ptr noundef %0, ptr noundef %1, i32 noundef %2, i32 noundef %3) #4 {
  %5 = alloca ptr, align 8
  %6 = alloca ptr, align 8
  %7 = alloca i32, align 4
  %8 = alloca i32, align 4
  %9 = alloca [5 x i8], align 1
  %10 = alloca i32, align 4
  %11 = alloca i8, align 1
  %12 = alloca %"struct.cv::iPow_SIMD", align 1
  %13 = alloca i32, align 4
  %14 = alloca i32, align 4
  %15 = alloca i32, align 4
  %16 = alloca i32, align 4
  store ptr %0, ptr %5, align 8, !tbaa !39
  store ptr %1, ptr %6, align 8, !tbaa !39
  store i32 %2, ptr %7, align 4, !tbaa !8
  store i32 %3, ptr %8, align 4, !tbaa !8
  %17 = load i32, ptr %8, align 4, !tbaa !8
  %18 = icmp slt i32 %17, 0
  br i1 %18, label %19, label %70

19:                                               ; preds = %4
  call void @llvm.lifetime.start.p0(i64 5, ptr %9) #3
  %20 = load i32, ptr %8, align 4, !tbaa !8
  %21 = icmp eq i32 %20, -1
  %22 = select i1 %21, i32 -1, i32 0
  %23 = call noundef zeroext i8 @_ZN2cvL13saturate_castIhEET_i(i32 noundef %22)
  store i8 %23, ptr %9, align 1, !tbaa !7
  %24 = getelementptr inbounds i8, ptr %9, i64 1
  %25 = load i32, ptr %8, align 4, !tbaa !8
  %26 = and i32 %25, 1
  %27 = icmp ne i32 %26, 0
  %28 = select i1 %27, i32 -1, i32 1
  %29 = call noundef zeroext i8 @_ZN2cvL13saturate_castIhEET_i(i32 noundef %28)
  store i8 %29, ptr %24, align 1, !tbaa !7
  %30 = getelementptr inbounds i8, ptr %9, i64 2
  %31 = call noundef zeroext i8 @_ZNSt14numeric_limitsIhE3maxEv() #3
  store i8 %31, ptr %30, align 1, !tbaa !7
  %32 = getelementptr inbounds i8, ptr %9, i64 3
  store i8 1, ptr %32, align 1, !tbaa !7
  %33 = getelementptr inbounds i8, ptr %9, i64 4
  %34 = load i32, ptr %8, align 4, !tbaa !8
  %35 = icmp eq i32 %34, -1
  %36 = select i1 %35, i32 1, i32 0
  %37 = call noundef zeroext i8 @_ZN2cvL13saturate_castIhEET_i(i32 noundef %36)
  store i8 %37, ptr %33, align 1, !tbaa !7
  call void @llvm.lifetime.start.p0(i64 4, ptr %10) #3
  store i32 0, ptr %10, align 4, !tbaa !8
  br label %38

38:                                               ; preds = %66, %19
  %39 = load i32, ptr %10, align 4, !tbaa !8
  %40 = load i32, ptr %7, align 4, !tbaa !8
  %41 = icmp slt i32 %39, %40
  br i1 %41, label %43, label %42

42:                                               ; preds = %38
  call void @llvm.lifetime.end.p0(i64 4, ptr %10) #3
  br label %69

43:                                               ; preds = %38
  call void @llvm.lifetime.start.p0(i64 1, ptr %11) #3
  %44 = load ptr, ptr %5, align 8, !tbaa !39
  %45 = load i32, ptr %10, align 4, !tbaa !8
  %46 = sext i32 %45 to i64
  %47 = getelementptr inbounds i8, ptr %44, i64 %46
  %48 = load i8, ptr %47, align 1, !tbaa !7
  store i8 %48, ptr %11, align 1, !tbaa !7
  %49 = load i8, ptr %11, align 1, !tbaa !7
  %50 = call noundef i32 @_ZN2cv6cv_absEh(i8 noundef zeroext %49)
  %51 = icmp sle i32 %50, 2
  br i1 %51, label %52, label %59

52:                                               ; preds = %43
  %53 = load i8, ptr %11, align 1, !tbaa !7
  %54 = zext i8 %53 to i32
  %55 = add nsw i32 %54, 2
  %56 = sext i32 %55 to i64
  %57 = getelementptr inbounds [5 x i8], ptr %9, i64 0, i64 %56
  %58 = load i8, ptr %57, align 1, !tbaa !7
  br label %60

59:                                               ; preds = %43
  br label %60

60:                                               ; preds = %59, %52
  %61 = phi i8 [ %58, %52 ], [ 0, %59 ]
  %62 = load ptr, ptr %6, align 8, !tbaa !39
  %63 = load i32, ptr %10, align 4, !tbaa !8
  %64 = sext i32 %63 to i64
  %65 = getelementptr inbounds i8, ptr %62, i64 %64
  store i8 %61, ptr %65, align 1, !tbaa !7
  call void @llvm.lifetime.end.p0(i64 1, ptr %11) #3
  br label %66

66:                                               ; preds = %60
  %67 = load i32, ptr %10, align 4, !tbaa !8
  %68 = add nsw i32 %67, 1
  store i32 %68, ptr %10, align 4, !tbaa !8
  br label %38, !llvm.loop !178

69:                                               ; preds = %42
  call void @llvm.lifetime.end.p0(i64 5, ptr %9) #3
  br label %119

70:                                               ; preds = %4
  call void @llvm.lifetime.start.p0(i64 1, ptr %12) #3
  call void @llvm.lifetime.start.p0(i64 4, ptr %13) #3
  %71 = load ptr, ptr %5, align 8, !tbaa !39
  %72 = load ptr, ptr %6, align 8, !tbaa !39
  %73 = load i32, ptr %7, align 4, !tbaa !8
  %74 = load i32, ptr %8, align 4, !tbaa !8
  %75 = call noundef i32 @_ZN2cv9iPow_SIMDIhjEclEPKhPhii(ptr noundef nonnull align 1 dereferenceable(1) %12, ptr noundef %71, ptr noundef %72, i32 noundef %73, i32 noundef %74)
  store i32 %75, ptr %13, align 4, !tbaa !8
  br label %76

76:                                               ; preds = %115, %70
  %77 = load i32, ptr %13, align 4, !tbaa !8
  %78 = load i32, ptr %7, align 4, !tbaa !8
  %79 = icmp slt i32 %77, %78
  br i1 %79, label %80, label %118

80:                                               ; preds = %76
  call void @llvm.lifetime.start.p0(i64 4, ptr %14) #3
  store i32 1, ptr %14, align 4, !tbaa !8
  call void @llvm.lifetime.start.p0(i64 4, ptr %15) #3
  %81 = load ptr, ptr %5, align 8, !tbaa !39
  %82 = load i32, ptr %13, align 4, !tbaa !8
  %83 = sext i32 %82 to i64
  %84 = getelementptr inbounds i8, ptr %81, i64 %83
  %85 = load i8, ptr %84, align 1, !tbaa !7
  %86 = zext i8 %85 to i32
  store i32 %86, ptr %15, align 4, !tbaa !8
  call void @llvm.lifetime.start.p0(i64 4, ptr %16) #3
  %87 = load i32, ptr %8, align 4, !tbaa !8
  store i32 %87, ptr %16, align 4, !tbaa !8
  br label %88

88:                                               ; preds = %99, %80
  %89 = load i32, ptr %16, align 4, !tbaa !8
  %90 = icmp sgt i32 %89, 1
  br i1 %90, label %91, label %105

91:                                               ; preds = %88
  %92 = load i32, ptr %16, align 4, !tbaa !8
  %93 = and i32 %92, 1
  %94 = icmp ne i32 %93, 0
  br i1 %94, label %95, label %99

95:                                               ; preds = %91
  %96 = load i32, ptr %15, align 4, !tbaa !8
  %97 = load i32, ptr %14, align 4, !tbaa !8
  %98 = mul i32 %97, %96
  store i32 %98, ptr %14, align 4, !tbaa !8
  br label %99

99:                                               ; preds = %95, %91
  %100 = load i32, ptr %15, align 4, !tbaa !8
  %101 = load i32, ptr %15, align 4, !tbaa !8
  %102 = mul i32 %101, %100
  store i32 %102, ptr %15, align 4, !tbaa !8
  %103 = load i32, ptr %16, align 4, !tbaa !8
  %104 = ashr i32 %103, 1
  store i32 %104, ptr %16, align 4, !tbaa !8
  br label %88, !llvm.loop !179

105:                                              ; preds = %88
  %106 = load i32, ptr %15, align 4, !tbaa !8
  %107 = load i32, ptr %14, align 4, !tbaa !8
  %108 = mul i32 %107, %106
  store i32 %108, ptr %14, align 4, !tbaa !8
  %109 = load i32, ptr %14, align 4, !tbaa !8
  %110 = call noundef zeroext i8 @_ZN2cvL13saturate_castIhEET_j(i32 noundef %109)
  %111 = load ptr, ptr %6, align 8, !tbaa !39
  %112 = load i32, ptr %13, align 4, !tbaa !8
  %113 = sext i32 %112 to i64
  %114 = getelementptr inbounds i8, ptr %111, i64 %113
  store i8 %110, ptr %114, align 1, !tbaa !7
  call void @llvm.lifetime.end.p0(i64 4, ptr %16) #3
  call void @llvm.lifetime.end.p0(i64 4, ptr %15) #3
  call void @llvm.lifetime.end.p0(i64 4, ptr %14) #3
  br label %115

115:                                              ; preds = %105
  %116 = load i32, ptr %13, align 4, !tbaa !8
  %117 = add nsw i32 %116, 1
  store i32 %117, ptr %13, align 4, !tbaa !8
  br label %76, !llvm.loop !180

118:                                              ; preds = %76
  call void @llvm.lifetime.end.p0(i64 4, ptr %13) #3
  call void @llvm.lifetime.end.p0(i64 1, ptr %12) #3
  br label %119

119:                                              ; preds = %118, %69
  ret void
}

; Function Attrs: mustprogress uwtable
define internal void @_ZN2cvL6iPow8uEPKhPhii(ptr noundef %0, ptr noundef %1, i32 noundef %2, i32 noundef %3) #4 {
  %5 = alloca ptr, align 8
  %6 = alloca ptr, align 8
  %7 = alloca i32, align 4
  %8 = alloca i32, align 4
  store ptr %0, ptr %5, align 8, !tbaa !39
  store ptr %1, ptr %6, align 8, !tbaa !39
  store i32 %2, ptr %7, align 4, !tbaa !8
  store i32 %3, ptr %8, align 4, !tbaa !8
  %9 = load ptr, ptr %5, align 8, !tbaa !39
  %10 = load ptr, ptr %6, align 8, !tbaa !39
  %11 = load i32, ptr %7, align 4, !tbaa !8
  %12 = load i32, ptr %8, align 4, !tbaa !8
  call void @_ZN2cvL6iPow_iIhjEEvPKT_PS1_ii(ptr noundef %9, ptr noundef %10, i32 noundef %11, i32 noundef %12)
  ret void
}